target datalayout = "e-m:e-p270:32:32-p271:32:32-p272:64:64-i64:64-i128:128-f80:128-n8:16:32:64-S128"
target triple = "x86_64-pc-linux-gnu"

%struct.bignum_st = type { ptr, i32, i32, i32, i32 }

; Function Attrs: nounwind uwtable
define i32 @bn_mod_sub_fixed_top(ptr noundef %0, ptr noundef %1, ptr noundef %2, ptr noundef %3) #0 {
  %5 = alloca i32, align 4
  %6 = alloca ptr, align 8
  %7 = alloca ptr, align 8
  %8 = alloca ptr, align 8
  %9 = alloca ptr, align 8
  %10 = alloca i64, align 8
  %11 = alloca i64, align 8
  %12 = alloca i64, align 8
  %13 = alloca i64, align 8
  %14 = alloca i64, align 8
  %15 = alloca i64, align 8
  %16 = alloca i64, align 8
  %17 = alloca i64, align 8
  %18 = alloca i64, align 8
  %19 = alloca ptr, align 8
  %20 = alloca ptr, align 8
  %21 = alloca ptr, align 8
  %22 = alloca i32, align 4
  store ptr %0, ptr %6, align 8, !tbaa !3
  store ptr %1, ptr %7, align 8, !tbaa !3
  store ptr %2, ptr %8, align 8, !tbaa !3
  store ptr %3, ptr %9, align 8, !tbaa !3
  call void @llvm.lifetime.start.p0(i64 8, ptr %10) #3
  call void @llvm.lifetime.start.p0(i64 8, ptr %11) #3
  call void @llvm.lifetime.start.p0(i64 8, ptr %12) #3
  call void @llvm.lifetime.start.p0(i64 8, ptr %13) #3
  %23 = load ptr, ptr %9, align 8, !tbaa !3
  %24 = getelementptr inbounds nuw %struct.bignum_st, ptr %23, i32 0, i32 1
  %25 = load i32, ptr %24, align 8, !tbaa !14
  %26 = sext i32 %25 to i64
  store i64 %26, ptr %13, align 8, !tbaa !15
  call void @llvm.lifetime.start.p0(i64 8, ptr %14) #3
  call void @llvm.lifetime.start.p0(i64 8, ptr %15) #3
  call void @llvm.lifetime.start.p0(i64 8, ptr %16) #3
  call void @llvm.lifetime.start.p0(i64 8, ptr %17) #3
  call void @llvm.lifetime.start.p0(i64 8, ptr %18) #3
  call void @llvm.lifetime.start.p0(i64 8, ptr %19) #3
  call void @llvm.lifetime.start.p0(i64 8, ptr %20) #3
  call void @llvm.lifetime.start.p0(i64 8, ptr %21) #3
  %27 = load ptr, ptr %6, align 8, !tbaa !3
  %28 = load i64, ptr %13, align 8, !tbaa !15
  %29 = trunc i64 %28 to i32
  %30 = call ptr @bn_wexpand(ptr noundef %27, i32 noundef %29)
  %31 = icmp eq ptr %30, null
  br i1 %31, label %32, label %33

32:                                               ; preds = %4
  store i32 0, ptr %5, align 4
  store i32 1, ptr %22, align 4
  br label %239

33:                                               ; preds = %4
  %34 = load ptr, ptr %6, align 8, !tbaa !3
  %35 = getelementptr inbounds nuw %struct.bignum_st, ptr %34, i32 0, i32 0
  %36 = load ptr, ptr %35, align 8, !tbaa !18
  store ptr %36, ptr %19, align 8, !tbaa !17
  %37 = load ptr, ptr %7, align 8, !tbaa !3
  %38 = getelementptr inbounds nuw %struct.bignum_st, ptr %37, i32 0, i32 0
  %39 = load ptr, ptr %38, align 8, !tbaa !18
  %40 = icmp ne ptr %39, null
  br i1 %40, label %41, label %45

41:                                               ; preds = %33
  %42 = load ptr, ptr %7, align 8, !tbaa !3
  %43 = getelementptr inbounds nuw %struct.bignum_st, ptr %42, i32 0, i32 0
  %44 = load ptr, ptr %43, align 8, !tbaa !18
  br label %47

45:                                               ; preds = %33
  %46 = load ptr, ptr %19, align 8, !tbaa !17
  br label %47

47:                                               ; preds = %45, %41
  %48 = phi ptr [ %44, %41 ], [ %46, %45 ]
  store ptr %48, ptr %20, align 8, !tbaa !17
  %49 = load ptr, ptr %8, align 8, !tbaa !3
  %50 = getelementptr inbounds nuw %struct.bignum_st, ptr %49, i32 0, i32 0
  %51 = load ptr, ptr %50, align 8, !tbaa !18
  %52 = icmp ne ptr %51, null
  br i1 %52, label %53, label %57

53:                                               ; preds = %47
  %54 = load ptr, ptr %8, align 8, !tbaa !3
  %55 = getelementptr inbounds nuw %struct.bignum_st, ptr %54, i32 0, i32 0
  %56 = load ptr, ptr %55, align 8, !tbaa !18
  br label %59

57:                                               ; preds = %47
  %58 = load ptr, ptr %19, align 8, !tbaa !17
  br label %59

59:                                               ; preds = %57, %53
  %60 = phi ptr [ %56, %53 ], [ %58, %57 ]
  store ptr %60, ptr %21, align 8, !tbaa !17
  store i64 0, ptr %10, align 8, !tbaa !15
  store i64 0, ptr %11, align 8, !tbaa !15
  store i64 0, ptr %12, align 8, !tbaa !15
  store i64 0, ptr %14, align 8, !tbaa !15
  br label %61

61:                                               ; preds = %111, %59
  %62 = load i64, ptr %10, align 8, !tbaa !15
  %63 = load i64, ptr %13, align 8, !tbaa !15
  %64 = icmp ult i64 %62, %63
  br i1 %64, label %65, label %132

65:                                               ; preds = %61
  %66 = load i64, ptr %10, align 8, !tbaa !15
  %67 = load ptr, ptr %7, align 8, !tbaa !3
  %68 = getelementptr inbounds nuw %struct.bignum_st, ptr %67, i32 0, i32 1
  %69 = load i32, ptr %68, align 8, !tbaa !14
  %70 = sext i32 %69 to i64
  %71 = sub i64 %66, %70
  %72 = lshr i64 %71, 63
  %73 = sub i64 0, %72
  store i64 %73, ptr %18, align 8, !tbaa !15
  %74 = load ptr, ptr %20, align 8, !tbaa !17
  %75 = load i64, ptr %11, align 8, !tbaa !15
  %76 = getelementptr inbounds nuw i64, ptr %74, i64 %75
  %77 = load i64, ptr %76, align 8, !tbaa !15
  %78 = load i64, ptr %18, align 8, !tbaa !15
  %79 = and i64 %77, %78
  store i64 %79, ptr %16, align 8, !tbaa !15
  %80 = load i64, ptr %10, align 8, !tbaa !15
  %81 = load ptr, ptr %8, align 8, !tbaa !3
  %82 = getelementptr inbounds nuw %struct.bignum_st, ptr %81, i32 0, i32 1
  %83 = load i32, ptr %82, align 8, !tbaa !14
  %84 = sext i32 %83 to i64
  %85 = sub i64 %80, %84
  %86 = lshr i64 %85, 63
  %87 = sub i64 0, %86
  store i64 %87, ptr %18, align 8, !tbaa !15
  %88 = load ptr, ptr %21, align 8, !tbaa !17
  %89 = load i64, ptr %12, align 8, !tbaa !15
  %90 = getelementptr inbounds nuw i64, ptr %88, i64 %89
  %91 = load i64, ptr %90, align 8, !tbaa !15
  %92 = load i64, ptr %18, align 8, !tbaa !15
  %93 = and i64 %91, %92
  store i64 %93, ptr %17, align 8, !tbaa !15
  %94 = load i64, ptr %16, align 8, !tbaa !15
  %95 = load i64, ptr %17, align 8, !tbaa !15
  %96 = sub i64 %94, %95
  %97 = load i64, ptr %14, align 8, !tbaa !15
  %98 = sub i64 %96, %97
  %99 = load ptr, ptr %19, align 8, !tbaa !17
  %100 = load i64, ptr %10, align 8, !tbaa !15
  %101 = getelementptr inbounds nuw i64, ptr %99, i64 %100
  store i64 %98, ptr %101, align 8, !tbaa !15
  %102 = load i64, ptr %16, align 8, !tbaa !15
  %103 = load i64, ptr %17, align 8, !tbaa !15
  %104 = icmp ne i64 %102, %103
  br i1 %104, label %105, label %111

105:                                              ; preds = %65
  %106 = load i64, ptr %16, align 8, !tbaa !15
  %107 = load i64, ptr %17, align 8, !tbaa !15
  %108 = icmp ult i64 %106, %107
  %109 = zext i1 %108 to i32
  %110 = sext i32 %109 to i64
  store i64 %110, ptr %14, align 8, !tbaa !15
  br label %111

111:                                              ; preds = %105, %65
  %112 = load i64, ptr %10, align 8, !tbaa !15
  %113 = add i64 %112, 1
  store i64 %113, ptr %10, align 8, !tbaa !15
  %114 = load i64, ptr %10, align 8, !tbaa !15
  %115 = load ptr, ptr %7, align 8, !tbaa !3
  %116 = getelementptr inbounds nuw %struct.bignum_st, ptr %115, i32 0, i32 2
  %117 = load i32, ptr %116, align 4, !tbaa !19
  %118 = sext i32 %117 to i64
  %119 = sub i64 %114, %118
  %120 = lshr i64 %119, 63
  %121 = load i64, ptr %11, align 8, !tbaa !15
  %122 = add i64 %121, %120
  store i64 %122, ptr %11, align 8, !tbaa !15
  %123 = load i64, ptr %10, align 8, !tbaa !15
  %124 = load ptr, ptr %8, align 8, !tbaa !3
  %125 = getelementptr inbounds nuw %struct.bignum_st, ptr %124, i32 0, i32 2
  %126 = load i32, ptr %125, align 4, !tbaa !19
  %127 = sext i32 %126 to i64
  %128 = sub i64 %123, %127
  %129 = lshr i64 %128, 63
  %130 = load i64, ptr %12, align 8, !tbaa !15
  %131 = add i64 %130, %129
  store i64 %131, ptr %12, align 8, !tbaa !15
  br label %61, !llvm.loop !25

132:                                              ; preds = %61
  %133 = load ptr, ptr %9, align 8, !tbaa !3
  %134 = getelementptr inbounds nuw %struct.bignum_st, ptr %133, i32 0, i32 0
  %135 = load ptr, ptr %134, align 8, !tbaa !18
  store ptr %135, ptr %20, align 8, !tbaa !17
  store i64 0, ptr %10, align 8, !tbaa !15
  %136 = load i64, ptr %14, align 8, !tbaa !15
  %137 = sub i64 0, %136
  store i64 %137, ptr %18, align 8, !tbaa !15
  store i64 0, ptr %15, align 8, !tbaa !15
  br label %138

138:                                              ; preds = %177, %132
  %139 = load i64, ptr %10, align 8, !tbaa !15
  %140 = load i64, ptr %13, align 8, !tbaa !15
  %141 = icmp ult i64 %139, %140
  br i1 %141, label %142, label %180

142:                                              ; preds = %138
  %143 = load ptr, ptr %20, align 8, !tbaa !17
  %144 = load i64, ptr %10, align 8, !tbaa !15
  %145 = getelementptr inbounds nuw i64, ptr %143, i64 %144
  %146 = load i64, ptr %145, align 8, !tbaa !15
  %147 = load i64, ptr %18, align 8, !tbaa !15
  %148 = and i64 %146, %147
  %149 = load i64, ptr %15, align 8, !tbaa !15
  %150 = add i64 %148, %149
  %151 = and i64 %150, -1
  store i64 %151, ptr %16, align 8, !tbaa !15
  %152 = load i64, ptr %16, align 8, !tbaa !15
  %153 = load i64, ptr %15, align 8, !tbaa !15
  %154 = icmp ult i64 %152, %153
  %155 = zext i1 %154 to i32
  %156 = sext i32 %155 to i64
  store i64 %156, ptr %15, align 8, !tbaa !15
  %157 = load ptr, ptr %19, align 8, !tbaa !17
  %158 = load i64, ptr %10, align 8, !tbaa !15
  %159 = getelementptr inbounds nuw i64, ptr %157, i64 %158
  %160 = load i64, ptr %159, align 8, !tbaa !15
  %161 = load i64, ptr %16, align 8, !tbaa !15
  %162 = add i64 %160, %161
  %163 = and i64 %162, -1
  %164 = load ptr, ptr %19, align 8, !tbaa !17
  %165 = load i64, ptr %10, align 8, !tbaa !15
  %166 = getelementptr inbounds nuw i64, ptr %164, i64 %165
  store i64 %163, ptr %166, align 8, !tbaa !15
  %167 = load ptr, ptr %19, align 8, !tbaa !17
  %168 = load i64, ptr %10, align 8, !tbaa !15
  %169 = getelementptr inbounds nuw i64, ptr %167, i64 %168
  %170 = load i64, ptr %169, align 8, !tbaa !15
  %171 = load i64, ptr %16, align 8, !tbaa !15
  %172 = icmp ult i64 %170, %171
  %173 = zext i1 %172 to i32
  %174 = sext i32 %173 to i64
  %175 = load i64, ptr %15, align 8, !tbaa !15
  %176 = add i64 %175, %174
  store i64 %176, ptr %15, align 8, !tbaa !15
  br label %177

177:                                              ; preds = %142
  %178 = load i64, ptr %10, align 8, !tbaa !15
  %179 = add i64 %178, 1
  store i64 %179, ptr %10, align 8, !tbaa !15
  br label %138, !llvm.loop !26

180:                                              ; preds = %138
  %181 = load i64, ptr %15, align 8, !tbaa !15
  %182 = load i64, ptr %14, align 8, !tbaa !15
  %183 = sub i64 %182, %181
  store i64 %183, ptr %14, align 8, !tbaa !15
  store i64 0, ptr %10, align 8, !tbaa !15
  %184 = load i64, ptr %14, align 8, !tbaa !15
  %185 = sub i64 0, %184
  store i64 %185, ptr %18, align 8, !tbaa !15
  store i64 0, ptr %15, align 8, !tbaa !15
  br label %186

186:                                              ; preds = %225, %180
  %187 = load i64, ptr %10, align 8, !tbaa !15
  %188 = load i64, ptr %13, align 8, !tbaa !15
  %189 = icmp ult i64 %187, %188
  br i1 %189, label %190, label %228

190:                                              ; preds = %186
  %191 = load ptr, ptr %20, align 8, !tbaa !17
  %192 = load i64, ptr %10, align 8, !tbaa !15
  %193 = getelementptr inbounds nuw i64, ptr %191, i64 %192
  %194 = load i64, ptr %193, align 8, !tbaa !15
  %195 = load i64, ptr %18, align 8, !tbaa !15
  %196 = and i64 %194, %195
  %197 = load i64, ptr %15, align 8, !tbaa !15
  %198 = add i64 %196, %197
  %199 = and i64 %198, -1
  store i64 %199, ptr %16, align 8, !tbaa !15
  %200 = load i64, ptr %16, align 8, !tbaa !15
  %201 = load i64, ptr %15, align 8, !tbaa !15
  %202 = icmp ult i64 %200, %201
  %203 = zext i1 %202 to i32
  %204 = sext i32 %203 to i64
  store i64 %204, ptr %15, align 8, !tbaa !15
  %205 = load ptr, ptr %19, align 8, !tbaa !17
  %206 = load i64, ptr %10, align 8, !tbaa !15
  %207 = getelementptr inbounds nuw i64, ptr %205, i64 %206
  %208 = load i64, ptr %207, align 8, !tbaa !15
  %209 = load i64, ptr %16, align 8, !tbaa !15
  %210 = add i64 %208, %209
  %211 = and i64 %210, -1
  %212 = load ptr, ptr %19, align 8, !tbaa !17
  %213 = load i64, ptr %10, align 8, !tbaa !15
  %214 = getelementptr inbounds nuw i64, ptr %212, i64 %213
  store i64 %211, ptr %214, align 8, !tbaa !15
  %215 = load ptr, ptr %19, align 8, !tbaa !17
  %216 = load i64, ptr %10, align 8, !tbaa !15
  %217 = getelementptr inbounds nuw i64, ptr %215, i64 %216
  %218 = load i64, ptr %217, align 8, !tbaa !15
  %219 = load i64, ptr %16, align 8, !tbaa !15
  %220 = icmp ult i64 %218, %219
  %221 = zext i1 %220 to i32
  %222 = sext i32 %221 to i64
  %223 = load i64, ptr %15, align 8, !tbaa !15
  %224 = add i64 %223, %222
  store i64 %224, ptr %15, align 8, !tbaa !15
  br label %225

225:                                              ; preds = %190
  %226 = load i64, ptr %10, align 8, !tbaa !15
  %227 = add i64 %226, 1
  store i64 %227, ptr %10, align 8, !tbaa !15
  br label %186, !llvm.loop !27

228:                                              ; preds = %186
  %229 = load i64, ptr %13, align 8, !tbaa !15
  %230 = trunc i64 %229 to i32
  %231 = load ptr, ptr %6, align 8, !tbaa !3
  %232 = getelementptr inbounds nuw %struct.bignum_st, ptr %231, i32 0, i32 1
  store i32 %230, ptr %232, align 8, !tbaa !14
  %233 = load ptr, ptr %6, align 8, !tbaa !3
  %234 = getelementptr inbounds nuw %struct.bignum_st, ptr %233, i32 0, i32 4
  %235 = load i32, ptr %234, align 4, !tbaa !23
  %236 = or i32 %235, 0
  store i32 %236, ptr %234, align 4, !tbaa !23
  %237 = load ptr, ptr %6, align 8, !tbaa !3
  %238 = getelementptr inbounds nuw %struct.bignum_st, ptr %237, i32 0, i32 3
  store i32 0, ptr %238, align 8, !tbaa !10
  store i32 1, ptr %5, align 4
  store i32 1, ptr %22, align 4
  br label %239

239:                                              ; preds = %228, %32
  call void @llvm.lifetime.end.p0(i64 8, ptr %21) #3
  call void @llvm.lifetime.end.p0(i64 8, ptr %20) #3
  call void @llvm.lifetime.end.p0(i64 8, ptr %19) #3
  call void @llvm.lifetime.end.p0(i64 8, ptr %18) #3
  call void @llvm.lifetime.end.p0(i64 8, ptr %17) #3
  call void @llvm.lifetime.end.p0(i64 8, ptr %16) #3
  call void @llvm.lifetime.end.p0(i64 8, ptr %15) #3
  call void @llvm.lifetime.end.p0(i64 8, ptr %14) #3
  call void @llvm.lifetime.end.p0(i64 8, ptr %13) #3
  call void @llvm.lifetime.end.p0(i64 8, ptr %12) #3
  call void @llvm.lifetime.end.p0(i64 8, ptr %11) #3
  call void @llvm.lifetime.end.p0(i64 8, ptr %10) #3
  %240 = load i32, ptr %5, align 4
  ret i32 %240
}