; Function Attrs: nounwind uwtable
define range(i32 0, 2) i32 @bn_mod_sub_fixed_top(ptr noundef %0, ptr noundef readonly captures(none) %1, ptr noundef readonly captures(none) %2, ptr noundef readonly captures(none) %3) local_unnamed_addr #0 {
  %5 = getelementptr inbounds nuw i8, ptr %3, i64 8
  %6 = load i32, ptr %5, align 8, !tbaa !11
  %7 = sext i32 %6 to i64
  %8 = tail call ptr @bn_wexpand(ptr noundef %0, i32 noundef %6) #4
  %9 = icmp eq ptr %8, null
  br i1 %9, label %78, label %10

10:                                               ; preds = %4
  %11 = load ptr, ptr %0, align 8, !tbaa !12
  %12 = load ptr, ptr %1, align 8, !tbaa !12
  %.not = icmp eq ptr %12, null
  %. = select i1 %.not, ptr %11, ptr %12
  %13 = load ptr, ptr %2, align 8, !tbaa !12
  %.not95 = icmp eq ptr %13, null
  %14 = select i1 %.not95, ptr %11, ptr %13
  %.not118 = icmp eq i32 %6, 0
  br i1 %.not118, label %._crit_edge117, label %.lr.ph

.lr.ph:                                           ; preds = %10
  %15 = getelementptr inbounds nuw i8, ptr %1, i64 8
  %16 = load i32, ptr %15, align 8, !tbaa !11
  %17 = sext i32 %16 to i64
  %18 = getelementptr inbounds nuw i8, ptr %2, i64 8
  %19 = load i32, ptr %18, align 8, !tbaa !11
  %20 = sext i32 %19 to i64
  %21 = getelementptr inbounds nuw i8, ptr %1, i64 12
  %22 = load i32, ptr %21, align 4, !tbaa !13
  %23 = sext i32 %22 to i64
  %24 = getelementptr inbounds nuw i8, ptr %2, i64 12
  %25 = load i32, ptr %24, align 4, !tbaa !13
  %26 = sext i32 %25 to i64
  br label %27

27:                                               ; preds = %.lr.ph, %27
  %28 = phi i64 [ 0, %.lr.ph ], [ %48, %27 ]
  %.083105 = phi i64 [ 0, %.lr.ph ], [ %41, %27 ]
  %.084104 = phi i64 [ 0, %.lr.ph ], [ %44, %27 ]
  %.087103 = phi i64 [ 0, %.lr.ph ], [ %.188, %27 ]
  %.089102 = phi i64 [ 0, %.lr.ph ], [ %47, %27 ]
  %29 = sub i64 %.083105, %17
  %30 = getelementptr inbounds nuw i64, ptr %., i64 %.084104
  %31 = load i64, ptr %30, align 8, !tbaa !14
  %isneg = icmp slt i64 %29, 0
  %32 = select i1 %isneg, i64 %31, i64 0
  %33 = sub i64 %.083105, %20
  %34 = getelementptr inbounds nuw i64, ptr %14, i64 %.089102
  %35 = load i64, ptr %34, align 8, !tbaa !14
  %isneg98 = icmp slt i64 %33, 0
  %36 = select i1 %isneg98, i64 %35, i64 0
  %.neg101 = add i64 %32, %28
  %37 = sub i64 %.neg101, %36
  %38 = getelementptr inbounds nuw i64, ptr %11, i64 %.083105
  store i64 %37, ptr %38, align 8, !tbaa !14
  %.not99 = icmp eq i64 %32, %36
  %39 = icmp ult i64 %32, %36
  %40 = zext i1 %39 to i64
  %.188 = select i1 %.not99, i64 %.087103, i64 %40
  %41 = add nuw i64 %.083105, 1
  %42 = sub i64 %41, %23
  %43 = lshr i64 %42, 63
  %44 = add i64 %43, %.084104
  %45 = sub i64 %41, %26
  %46 = lshr i64 %45, 63
  %47 = add i64 %46, %.089102
  %48 = sub nsw i64 0, %.188
  %exitcond.not = icmp eq i64 %41, %7
  br i1 %exitcond.not, label %._crit_edge, label %27, !llvm.loop !19

._crit_edge:                                      ; preds = %27
  %49 = load ptr, ptr %3, align 8, !tbaa !12
  br label %.lr.ph110

.lr.ph110:                                        ; preds = %._crit_edge, %.lr.ph110
  %.1108 = phi i64 [ %62, %.lr.ph110 ], [ 0, %._crit_edge ]
  %.085107 = phi i64 [ %61, %.lr.ph110 ], [ 0, %._crit_edge ]
  %50 = getelementptr inbounds nuw i64, ptr %49, i64 %.1108
  %51 = load i64, ptr %50, align 8, !tbaa !14
  %52 = and i64 %51, %48
  %53 = add i64 %52, %.085107
  %54 = icmp ult i64 %53, %.085107
  %55 = zext i1 %54 to i64
  %56 = getelementptr inbounds nuw i64, ptr %11, i64 %.1108
  %57 = load i64, ptr %56, align 8, !tbaa !14
  %58 = add i64 %53, %57
  store i64 %58, ptr %56, align 8, !tbaa !14
  %59 = icmp ult i64 %58, %53
  %60 = zext i1 %59 to i64
  %61 = add nuw nsw i64 %60, %55
  %62 = add nuw i64 %.1108, 1
  %exitcond123.not = icmp eq i64 %62, %7
  br i1 %exitcond123.not, label %._crit_edge111, label %.lr.ph110, !llvm.loop !20

._crit_edge111:                                   ; preds = %.lr.ph110
  %.neg = sub nsw i64 %61, %.188
  br label %.lr.ph116

.lr.ph116:                                        ; preds = %._crit_edge111, %.lr.ph116
  %.2114 = phi i64 [ %75, %.lr.ph116 ], [ 0, %._crit_edge111 ]
  %.186113 = phi i64 [ %74, %.lr.ph116 ], [ 0, %._crit_edge111 ]
  %63 = getelementptr inbounds nuw i64, ptr %49, i64 %.2114
  %64 = load i64, ptr %63, align 8, !tbaa !14
  %65 = and i64 %64, %.neg
  %66 = add i64 %65, %.186113
  %67 = icmp ult i64 %66, %.186113
  %68 = zext i1 %67 to i64
  %69 = getelementptr inbounds nuw i64, ptr %11, i64 %.2114
  %70 = load i64, ptr %69, align 8, !tbaa !14
  %71 = add i64 %66, %70
  store i64 %71, ptr %69, align 8, !tbaa !14
  %72 = icmp ult i64 %71, %66
  %73 = zext i1 %72 to i64
  %74 = add nuw nsw i64 %73, %68
  %75 = add nuw i64 %.2114, 1
  %exitcond124.not = icmp eq i64 %75, %7
  br i1 %exitcond124.not, label %._crit_edge117, label %.lr.ph116, !llvm.loop !21

._crit_edge117:                                   ; preds = %.lr.ph116, %10
  %76 = getelementptr inbounds nuw i8, ptr %0, i64 8
  store i32 %6, ptr %76, align 8, !tbaa !11
  %77 = getelementptr inbounds nuw i8, ptr %0, i64 16
  store i32 0, ptr %77, align 8, !tbaa !3
  br label %78

78:                                               ; preds = %4, %._crit_edge117
  %.0 = phi i32 [ 1, %._crit_edge117 ], [ 0, %4 ]
  ret i32 %.0
}